; Function Attrs: mustprogress nounwind uwtable
define internal fastcc void @"_ZZN4llvm9KnownBits4sminERKS0_S2_ENK3$_0clES2_"(ptr dead_on_unwind noalias nocapture writable writeonly align 8 %0, ptr noundef nonnull align 8 dereferenceable(32) %1) unnamed_addr #0 align 2 {
  %3 = alloca %"class.llvm::APInt", align 8
  %4 = alloca %"class.llvm::APInt", align 8
  %5 = alloca %"class.llvm::APInt", align 8
  %6 = alloca %"class.llvm::APInt", align 8
  %7 = getelementptr inbounds nuw i8, ptr %1, i64 8
  %8 = load i32, ptr %7, align 8
  %9 = add i32 %8, -1
  %10 = getelementptr inbounds nuw i8, ptr %1, i64 16
  %11 = getelementptr inbounds nuw i8, ptr %3, i64 8
  %12 = getelementptr inbounds i8, ptr %1, i64 24
  %13 = load i32, ptr %12, align 8
  store i32 %13, ptr %11, align 8
  %14 = icmp ult i32 %13, 65
  br i1 %14, label %15, label %17

15:                                               ; preds = %2
  %16 = load i64, ptr %10, align 8
  store i64 %16, ptr %3, align 8
  br label %_ZN4llvm5APIntC2ERKS0_.exit

17:                                               ; preds = %2
  call void @_ZN4llvm5APInt12initSlowCaseERKS0_(ptr noundef nonnull align 8 dereferenceable(12) %3, ptr noundef nonnull align 8 dereferenceable(12) %10) #11
  %.pre = load i32, ptr %7, align 8
  br label %_ZN4llvm5APIntC2ERKS0_.exit

_ZN4llvm5APIntC2ERKS0_.exit:                      ; preds = %15, %17
  %18 = phi i32 [ %8, %15 ], [ %.pre, %17 ]
  %19 = getelementptr inbounds nuw i8, ptr %4, i64 8
  store i32 %18, ptr %19, align 8
  %20 = icmp ult i32 %18, 65
  br i1 %20, label %_ZN4llvm5APIntC2ERKS0_.exit8.thread, label %_ZN4llvm5APIntC2ERKS0_.exit8

_ZN4llvm5APIntC2ERKS0_.exit8.thread:              ; preds = %_ZN4llvm5APIntC2ERKS0_.exit
  %21 = load i64, ptr %1, align 8
  store i64 %21, ptr %4, align 8
  %22 = lshr i32 %9, 6
  %23 = zext nneg i32 %22 to i64
  br label %28

_ZN4llvm5APIntC2ERKS0_.exit8:                     ; preds = %_ZN4llvm5APIntC2ERKS0_.exit
  call void @_ZN4llvm5APInt12initSlowCaseERKS0_(ptr noundef nonnull align 8 dereferenceable(12) %4, ptr noundef nonnull align 8 dereferenceable(12) %1) #11
  %.pre2 = load i32, ptr %7, align 8
  %.pre3 = load ptr, ptr %1, align 8
  %.pre2.fr = freeze i32 %.pre2
  %24 = icmp ult i32 %.pre2.fr, 65
  %25 = lshr i32 %9, 6
  %26 = zext nneg i32 %25 to i64
  %27 = getelementptr inbounds i64, ptr %.pre3, i64 %26
  %spec.select = select i1 %24, ptr %1, ptr %27
  br label %28

28:                                               ; preds = %_ZN4llvm5APIntC2ERKS0_.exit8, %_ZN4llvm5APIntC2ERKS0_.exit8.thread
  %29 = phi i64 [ %23, %_ZN4llvm5APIntC2ERKS0_.exit8.thread ], [ %26, %_ZN4llvm5APIntC2ERKS0_.exit8 ]
  %30 = phi ptr [ %1, %_ZN4llvm5APIntC2ERKS0_.exit8.thread ], [ %spec.select, %_ZN4llvm5APIntC2ERKS0_.exit8 ]
  %.pn.in = and i32 %9, 63
  %.pn = zext nneg i32 %.pn.in to i64
  %31 = shl nuw i64 1, %.pn
  %32 = load i64, ptr %30, align 8
  %33 = and i64 %32, %31
  %.not = icmp eq i64 %33, 0
  br i1 %.not, label %41, label %34

34:                                               ; preds = %28
  %35 = load i32, ptr %11, align 8
  %36 = icmp ult i32 %35, 65
  %37 = load ptr, ptr %3, align 8
  %38 = getelementptr inbounds i64, ptr %37, i64 %29
  %.sink.i.i = select i1 %36, ptr %3, ptr %38
  %39 = load i64, ptr %.sink.i.i, align 8
  %40 = or i64 %39, %31
  store i64 %40, ptr %.sink.i.i, align 8
  br label %_ZN4llvm5APInt9setBitValEjb.exit

41:                                               ; preds = %28
  %42 = xor i64 %31, -1
  %43 = load i32, ptr %11, align 8
  %44 = icmp ult i32 %43, 65
  %45 = load ptr, ptr %3, align 8
  %46 = getelementptr inbounds i64, ptr %45, i64 %29
  %.sink.i3.i = select i1 %44, ptr %3, ptr %46
  %47 = load i64, ptr %.sink.i3.i, align 8
  %48 = and i64 %47, %42
  store i64 %48, ptr %.sink.i3.i, align 8
  br label %_ZN4llvm5APInt9setBitValEjb.exit

_ZN4llvm5APInt9setBitValEjb.exit:                 ; preds = %34, %41
  %49 = load i32, ptr %12, align 8
  %50 = icmp ult i32 %49, 65
  %51 = load ptr, ptr %10, align 8
  %52 = getelementptr inbounds i64, ptr %51, i64 %29
  %.in.i.i9 = select i1 %50, ptr %10, ptr %52
  %53 = load i64, ptr %.in.i.i9, align 8
  %54 = and i64 %53, %31
  %.not1 = icmp eq i64 %54, 0
  br i1 %.not1, label %62, label %55

55:                                               ; preds = %_ZN4llvm5APInt9setBitValEjb.exit
  %56 = load i32, ptr %19, align 8
  %57 = icmp ult i32 %56, 65
  %58 = load ptr, ptr %4, align 8
  %59 = getelementptr inbounds i64, ptr %58, i64 %29
  %.sink.i.i11 = select i1 %57, ptr %4, ptr %59
  %60 = load i64, ptr %.sink.i.i11, align 8
  %61 = or i64 %60, %31
  store i64 %61, ptr %.sink.i.i11, align 8
  br label %_ZN4llvm5APInt9setBitValEjb.exit12

62:                                               ; preds = %_ZN4llvm5APInt9setBitValEjb.exit
  %63 = xor i64 %31, -1
  %64 = load i32, ptr %19, align 8
  %65 = icmp ult i32 %64, 65
  %66 = load ptr, ptr %4, align 8
  %67 = getelementptr inbounds i64, ptr %66, i64 %29
  %.sink.i3.i10 = select i1 %65, ptr %4, ptr %67
  %68 = load i64, ptr %.sink.i3.i10, align 8
  %69 = and i64 %68, %63
  store i64 %69, ptr %.sink.i3.i10, align 8
  br label %_ZN4llvm5APInt9setBitValEjb.exit12

_ZN4llvm5APInt9setBitValEjb.exit12:               ; preds = %55, %62
  %70 = getelementptr inbounds nuw i8, ptr %5, i64 8
  %71 = load i32, ptr %11, align 8
  store i32 %71, ptr %70, align 8
  %72 = icmp ult i32 %71, 65
  br i1 %72, label %73, label %75

73:                                               ; preds = %_ZN4llvm5APInt9setBitValEjb.exit12
  %74 = load i64, ptr %3, align 8
  store i64 %74, ptr %5, align 8
  br label %_ZN4llvm5APIntC2ERKS0_.exit13

75:                                               ; preds = %_ZN4llvm5APInt9setBitValEjb.exit12
  call void @_ZN4llvm5APInt12initSlowCaseERKS0_(ptr noundef nonnull align 8 dereferenceable(12) %5, ptr noundef nonnull align 8 dereferenceable(12) %3) #11
  br label %_ZN4llvm5APIntC2ERKS0_.exit13

_ZN4llvm5APIntC2ERKS0_.exit13:                    ; preds = %73, %75
  %76 = getelementptr inbounds nuw i8, ptr %6, i64 8
  %77 = load i32, ptr %19, align 8
  store i32 %77, ptr %76, align 8
  %78 = icmp ult i32 %77, 65
  br i1 %78, label %79, label %81

79:                                               ; preds = %_ZN4llvm5APIntC2ERKS0_.exit13
  %80 = load i64, ptr %4, align 8
  store i64 %80, ptr %6, align 8
  br label %_ZN4llvm5APIntD2Ev.exit15

81:                                               ; preds = %_ZN4llvm5APIntC2ERKS0_.exit13
  call void @_ZN4llvm5APInt12initSlowCaseERKS0_(ptr noundef nonnull align 8 dereferenceable(12) %6, ptr noundef nonnull align 8 dereferenceable(12) %4) #11
  %.pre4 = load i32, ptr %76, align 8
  %.pre5 = load i64, ptr %6, align 8
  br label %_ZN4llvm5APIntD2Ev.exit15

_ZN4llvm5APIntD2Ev.exit15:                        ; preds = %79, %81
  %82 = phi i64 [ %.pre5, %81 ], [ %80, %79 ]
  %83 = phi i32 [ %.pre4, %81 ], [ %77, %79 ]
  %84 = getelementptr inbounds nuw i8, ptr %0, i64 8
  %85 = load i32, ptr %70, align 8
  store i32 %85, ptr %84, align 8
  %86 = load i64, ptr %5, align 8
  store i64 %86, ptr %0, align 8
  store i32 0, ptr %70, align 8
  %87 = getelementptr inbounds nuw i8, ptr %0, i64 16
  %88 = getelementptr inbounds i8, ptr %0, i64 24
  store i32 %83, ptr %88, align 8
  store i64 %82, ptr %87, align 8
  store i32 0, ptr %76, align 8
  %89 = load i32, ptr %19, align 8
  %90 = icmp ugt i32 %89, 64
  br i1 %90, label %91, label %_ZN4llvm5APIntD2Ev.exit16

91:                                               ; preds = %_ZN4llvm5APIntD2Ev.exit15
  %92 = load ptr, ptr %4, align 8
  %93 = icmp eq ptr %92, null
  br i1 %93, label %_ZN4llvm5APIntD2Ev.exit16, label %94

94:                                               ; preds = %91
  call void @_ZdaPv(ptr noundef nonnull %92) #12
  br label %_ZN4llvm5APIntD2Ev.exit16

_ZN4llvm5APIntD2Ev.exit16:                        ; preds = %_ZN4llvm5APIntD2Ev.exit15, %91, %94
  %95 = load i32, ptr %11, align 8
  %96 = icmp ugt i32 %95, 64
  br i1 %96, label %97, label %_ZN4llvm5APIntD2Ev.exit17

97:                                               ; preds = %_ZN4llvm5APIntD2Ev.exit16
  %98 = load ptr, ptr %3, align 8
  %99 = icmp eq ptr %98, null
  br i1 %99, label %_ZN4llvm5APIntD2Ev.exit17, label %100

100:                                              ; preds = %97
  call void @_ZdaPv(ptr noundef nonnull %98) #12
  br label %_ZN4llvm5APIntD2Ev.exit17

_ZN4llvm5APIntD2Ev.exit17:                        ; preds = %_ZN4llvm5APIntD2Ev.exit16, %97, %100
  ret void
}